target datalayout = "e-m:e-p270:32:32-p271:32:32-p272:64:64-i64:64-i128:128-f80:128-n8:16:32:64-S128"
target triple = "x86_64-unknown-linux-gnu"

%struct.MigrationAtomicStats = type { %struct.Stat64, %struct.Stat64, %struct.Stat64, %struct.Stat64, %struct.Stat64, %struct.Stat64, %struct.Stat64, %struct.Stat64, %struct.Stat64, %struct.Stat64, %struct.Stat64, %struct.Stat64, %struct.Stat64, %struct.Stat64, %struct.Stat64 }
%struct.Stat64 = type { i64 }
%struct.XBZRLECacheStats = type { i64, i64, i64, i64, double, double, i64 }
%struct.QemuEvent = type { i32, i8 }
%struct.QemuThread = type { i64 }
%struct.QemuSemaphore = type { %struct.QemuMutex, %struct.QemuCond, i32 }
%struct.QemuMutex = type { %union.pthread_mutex_t, i8 }
%union.pthread_mutex_t = type { %struct.__pthread_mutex_s }
%struct.__pthread_mutex_s = type { i32, i32, i32, i32, i32, i16, i16, %struct.__pthread_internal_list }
%struct.__pthread_internal_list = type { ptr, ptr }
%struct.QemuCond = type { %union.pthread_cond_t, i8 }
%union.pthread_cond_t = type { %struct.__pthread_cond_s }
%struct.__pthread_cond_s = type { %union.__atomic_wide_counter, %union.__atomic_wide_counter, [2 x i32], [2 x i32], i32, i32, [2 x i32] }
%union.__atomic_wide_counter = type { i64 }
%struct.MigrationState = type { %struct.DeviceState, %struct.QemuThread, ptr, ptr, ptr, ptr, %struct.QemuSemaphore, ptr, %struct.QemuMutex, %struct.QemuSemaphore, i64, double, i64, i64, i64, %struct.MigrationParameters, i32, %struct.anon.2, double, i64, i64, i64, i64, i64, [23 x i8], i64, i32, i8, i8, i8, i8, %struct.QemuSemaphore, %struct.QemuSemaphore, %struct.QemuSemaphore, %struct.QemuEvent, i64, ptr, ptr, %struct.QemuMutex, i8, i8, i8, i8, %struct.QemuSemaphore, i8, i8, i8, i8, ptr, ptr, i8, i8 }
%struct.DeviceState = type { %struct.Object, ptr, ptr, i8, i8, i64, ptr, i32, i8, ptr, %struct.NamedGPIOListHead, %struct.NamedClockListHead, %struct.BusStateHead, i32, i32, i32, %struct.ResettableState, ptr, %struct.MemReentrancyGuard }
%struct.Object = type { ptr, ptr, ptr, i32, ptr }
%struct.NamedGPIOListHead = type { ptr }
%struct.NamedClockListHead = type { ptr }
%struct.BusStateHead = type { ptr }
%struct.ResettableState = type { i32, i8, i8 }
%struct.MemReentrancyGuard = type { i8 }
%struct.MigrationParameters = type { i8, i64, i8, i64, i8, i64, i8, i64, i8, i8, i8, i8, i8, i8, i8, i8, i8, i8, i8, i8, i8, i8, i8, i8, ptr, ptr, ptr, i8, i64, i8, i64, i8, i64, i8, i32, i8, i8, i8, i8, i8, i64, i8, i64, i8, i8, i8, i32, i8, i8, i8, i8, i8, ptr, i8, i64, i8, i64, i8, i32 }
%struct.anon.2 = type { ptr, %struct.QemuThread, i8, %struct.QemuSemaphore, %struct.QemuSemaphore }
%struct.MigrationInfo = type { i8, i32, ptr, ptr, ptr, ptr, i8, i64, i8, i64, i8, i64, i8, i64, i8, i64, ptr, i8, ptr, i8, i32, i8, ptr, ptr, i8, ptr, i8, i64, i8, i64 }
%struct.MigrationStats = type { i64, i64, i64, i64, i64, i64, i64, i64, double, i64, i64, i64, i64, i64, i64, i64, i64, i64 }

@mig_stats = external global %struct.MigrationAtomicStats, align 8
@xbzrle_counters = external global %struct.XBZRLECacheStats, align 8

; Function Attrs: nounwind sspstrong uwtable
define internal i64 @stat64_get(ptr noundef %s) #0 {
entry:
  %s.addr = alloca ptr, align 8
  %atomic-temp = alloca i64, align 8
  store ptr %s, ptr %s.addr, align 8
  %0 = load ptr, ptr %s.addr, align 8
  %value = getelementptr inbounds %struct.Stat64, ptr %0, i32 0, i32 0
  %1 = load atomic i64, ptr %value monotonic, align 8
  store i64 %1, ptr %atomic-temp, align 8
  %2 = load i64, ptr %atomic-temp, align 8
  ret i64 %2
}

; Function Attrs: nounwind sspstrong uwtable
define internal void @populate_ram_info(ptr noundef %info, ptr noundef %s) #0 {
entry:
  %info.addr = alloca ptr, align 8
  %s.addr = alloca ptr, align 8
  %page_size = alloca i64, align 8
  store ptr %info, ptr %info.addr, align 8
  store ptr %s, ptr %s.addr, align 8
  %call = call i64 @qemu_target_page_size()
  store i64 %call, ptr %page_size, align 8
  %call1 = call noalias ptr @g_malloc0(i64 noundef 144) #17
  %0 = load ptr, ptr %info.addr, align 8
  %ram = getelementptr inbounds %struct.MigrationInfo, ptr %0, i32 0, i32 2
  store ptr %call1, ptr %ram, align 8
  %call2 = call i64 @migration_transferred_bytes()
  %1 = load ptr, ptr %info.addr, align 8
  %ram3 = getelementptr inbounds %struct.MigrationInfo, ptr %1, i32 0, i32 2
  %2 = load ptr, ptr %ram3, align 8
  %transferred = getelementptr inbounds %struct.MigrationStats, ptr %2, i32 0, i32 0
  store i64 %call2, ptr %transferred, align 8
  %call4 = call i64 @ram_bytes_total()
  %3 = load ptr, ptr %info.addr, align 8
  %ram5 = getelementptr inbounds %struct.MigrationInfo, ptr %3, i32 0, i32 2
  %4 = load ptr, ptr %ram5, align 8
  %total = getelementptr inbounds %struct.MigrationStats, ptr %4, i32 0, i32 2
  store i64 %call4, ptr %total, align 8
  %5 = getelementptr inbounds %struct.MigrationAtomicStats, ptr @mig_stats, i32 0, i32 14
  %call6 = call i64 @stat64_get(ptr noundef %5)
  %6 = load ptr, ptr %info.addr, align 8
  %ram7 = getelementptr inbounds %struct.MigrationInfo, ptr %6, i32 0, i32 2
  %7 = load ptr, ptr %ram7, align 8
  %duplicate = getelementptr inbounds %struct.MigrationStats, ptr %7, i32 0, i32 3
  store i64 %call6, ptr %duplicate, align 8
  %8 = load ptr, ptr %info.addr, align 8
  %ram8 = getelementptr inbounds %struct.MigrationInfo, ptr %8, i32 0, i32 2
  %9 = load ptr, ptr %ram8, align 8
  %skipped = getelementptr inbounds %struct.MigrationStats, ptr %9, i32 0, i32 4
  store i64 0, ptr %skipped, align 8
  %10 = getelementptr inbounds %struct.MigrationAtomicStats, ptr @mig_stats, i32 0, i32 6
  %call9 = call i64 @stat64_get(ptr noundef %10)
  %11 = load ptr, ptr %info.addr, align 8
  %ram10 = getelementptr inbounds %struct.MigrationInfo, ptr %11, i32 0, i32 2
  %12 = load ptr, ptr %ram10, align 8
  %normal = getelementptr inbounds %struct.MigrationStats, ptr %12, i32 0, i32 5
  store i64 %call9, ptr %normal, align 8
  %13 = load ptr, ptr %info.addr, align 8
  %ram11 = getelementptr inbounds %struct.MigrationInfo, ptr %13, i32 0, i32 2
  %14 = load ptr, ptr %ram11, align 8
  %normal12 = getelementptr inbounds %struct.MigrationStats, ptr %14, i32 0, i32 5
  %15 = load i64, ptr %normal12, align 8
  %16 = load i64, ptr %page_size, align 8
  %mul = mul i64 %15, %16
  %17 = load ptr, ptr %info.addr, align 8
  %ram13 = getelementptr inbounds %struct.MigrationInfo, ptr %17, i32 0, i32 2
  %18 = load ptr, ptr %ram13, align 8
  %normal_bytes = getelementptr inbounds %struct.MigrationStats, ptr %18, i32 0, i32 6
  store i64 %mul, ptr %normal_bytes, align 8
  %19 = load ptr, ptr %s.addr, align 8
  %mbps = getelementptr inbounds %struct.MigrationState, ptr %19, i32 0, i32 18
  %20 = load double, ptr %mbps, align 8
  %21 = load ptr, ptr %info.addr, align 8
  %ram14 = getelementptr inbounds %struct.MigrationInfo, ptr %21, i32 0, i32 2
  %22 = load ptr, ptr %ram14, align 8
  %mbps15 = getelementptr inbounds %struct.MigrationStats, ptr %22, i32 0, i32 8
  store double %20, ptr %mbps15, align 8
  %23 = getelementptr inbounds %struct.MigrationAtomicStats, ptr @mig_stats, i32 0, i32 2
  %call16 = call i64 @stat64_get(ptr noundef %23)
  %24 = load ptr, ptr %info.addr, align 8
  %ram17 = getelementptr inbounds %struct.MigrationInfo, ptr %24, i32 0, i32 2
  %25 = load ptr, ptr %ram17, align 8
  %dirty_sync_count = getelementptr inbounds %struct.MigrationStats, ptr %25, i32 0, i32 9
  store i64 %call16, ptr %dirty_sync_count, align 8
  %26 = getelementptr inbounds %struct.MigrationAtomicStats, ptr @mig_stats, i32 0, i32 3
  %call18 = call i64 @stat64_get(ptr noundef %26)
  %27 = load ptr, ptr %info.addr, align 8
  %ram19 = getelementptr inbounds %struct.MigrationInfo, ptr %27, i32 0, i32 2
  %28 = load ptr, ptr %ram19, align 8
  %dirty_sync_missed_zero_copy = getelementptr inbounds %struct.MigrationStats, ptr %28, i32 0, i32 17
  store i64 %call18, ptr %dirty_sync_missed_zero_copy, align 8
  %29 = getelementptr inbounds %struct.MigrationAtomicStats, ptr @mig_stats, i32 0, i32 8
  %call20 = call i64 @stat64_get(ptr noundef %29)
  %30 = load ptr, ptr %info.addr, align 8
  %ram21 = getelementptr inbounds %struct.MigrationInfo, ptr %30, i32 0, i32 2
  %31 = load ptr, ptr %ram21, align 8
  %postcopy_requests = getelementptr inbounds %struct.MigrationStats, ptr %31, i32 0, i32 10
  store i64 %call20, ptr %postcopy_requests, align 8
  %32 = load i64, ptr %page_size, align 8
  %33 = load ptr, ptr %info.addr, align 8
  %ram22 = getelementptr inbounds %struct.MigrationInfo, ptr %33, i32 0, i32 2
  %34 = load ptr, ptr %ram22, align 8
  %page_size23 = getelementptr inbounds %struct.MigrationStats, ptr %34, i32 0, i32 11
  store i64 %32, ptr %page_size23, align 8
  %35 = getelementptr inbounds %struct.MigrationAtomicStats, ptr @mig_stats, i32 0, i32 5
  %call24 = call i64 @stat64_get(ptr noundef %35)
  %36 = load ptr, ptr %info.addr, align 8
  %ram25 = getelementptr inbounds %struct.MigrationInfo, ptr %36, i32 0, i32 2
  %37 = load ptr, ptr %ram25, align 8
  %multifd_bytes = getelementptr inbounds %struct.MigrationStats, ptr %37, i32 0, i32 12
  store i64 %call24, ptr %multifd_bytes, align 8
  %38 = load ptr, ptr %s.addr, align 8
  %pages_per_second = getelementptr inbounds %struct.MigrationState, ptr %38, i32 0, i32 11
  %39 = load double, ptr %pages_per_second, align 8
  %conv = fptoui double %39 to i64
  %40 = load ptr, ptr %info.addr, align 8
  %ram26 = getelementptr inbounds %struct.MigrationInfo, ptr %40, i32 0, i32 2
  %41 = load ptr, ptr %ram26, align 8
  %pages_per_second27 = getelementptr inbounds %struct.MigrationStats, ptr %41, i32 0, i32 13
  store i64 %conv, ptr %pages_per_second27, align 8
  %42 = getelementptr inbounds %struct.MigrationAtomicStats, ptr @mig_stats, i32 0, i32 9
  %call28 = call i64 @stat64_get(ptr noundef %42)
  %43 = load ptr, ptr %info.addr, align 8
  %ram29 = getelementptr inbounds %struct.MigrationInfo, ptr %43, i32 0, i32 2
  %44 = load ptr, ptr %ram29, align 8
  %precopy_bytes = getelementptr inbounds %struct.MigrationStats, ptr %44, i32 0, i32 14
  store i64 %call28, ptr %precopy_bytes, align 8
  %45 = getelementptr inbounds %struct.MigrationAtomicStats, ptr @mig_stats, i32 0, i32 4
  %call30 = call i64 @stat64_get(ptr noundef %45)
  %46 = load ptr, ptr %info.addr, align 8
  %ram31 = getelementptr inbounds %struct.MigrationInfo, ptr %46, i32 0, i32 2
  %47 = load ptr, ptr %ram31, align 8
  %downtime_bytes = getelementptr inbounds %struct.MigrationStats, ptr %47, i32 0, i32 15
  store i64 %call30, ptr %downtime_bytes, align 8
  %48 = getelementptr inbounds %struct.MigrationAtomicStats, ptr @mig_stats, i32 0, i32 7
  %call32 = call i64 @stat64_get(ptr noundef %48)
  %49 = load ptr, ptr %info.addr, align 8
  %ram33 = getelementptr inbounds %struct.MigrationInfo, ptr %49, i32 0, i32 2
  %50 = load ptr, ptr %ram33, align 8
  %postcopy_bytes = getelementptr inbounds %struct.MigrationStats, ptr %50, i32 0, i32 16
  store i64 %call32, ptr %postcopy_bytes, align 8
  %call34 = call zeroext i1 @migrate_xbzrle()
  br i1 %call34, label %if.then, label %if.end

if.then:                                          ; preds = %entry
  %call35 = call noalias ptr @g_malloc0(i64 noundef 56) #17
  %51 = load ptr, ptr %info.addr, align 8
  %xbzrle_cache = getelementptr inbounds %struct.MigrationInfo, ptr %51, i32 0, i32 5
  store ptr %call35, ptr %xbzrle_cache, align 8
  %call36 = call i64 @migrate_xbzrle_cache_size()
  %52 = load ptr, ptr %info.addr, align 8
  %xbzrle_cache37 = getelementptr inbounds %struct.MigrationInfo, ptr %52, i32 0, i32 5
  %53 = load ptr, ptr %xbzrle_cache37, align 8
  %cache_size = getelementptr inbounds %struct.XBZRLECacheStats, ptr %53, i32 0, i32 0
  store i64 %call36, ptr %cache_size, align 8
  %54 = getelementptr inbounds %struct.XBZRLECacheStats, ptr @xbzrle_counters, i32 0, i32 1
  %55 = load i64, ptr %54, align 8
  %56 = load ptr, ptr %info.addr, align 8
  %xbzrle_cache38 = getelementptr inbounds %struct.MigrationInfo, ptr %56, i32 0, i32 5
  %57 = load ptr, ptr %xbzrle_cache38, align 8
  %bytes = getelementptr inbounds %struct.XBZRLECacheStats, ptr %57, i32 0, i32 1
  store i64 %55, ptr %bytes, align 8
  %58 = getelementptr inbounds %struct.XBZRLECacheStats, ptr @xbzrle_counters, i32 0, i32 2
  %59 = load i64, ptr %58, align 8
  %60 = load ptr, ptr %info.addr, align 8
  %xbzrle_cache39 = getelementptr inbounds %struct.MigrationInfo, ptr %60, i32 0, i32 5
  %61 = load ptr, ptr %xbzrle_cache39, align 8
  %pages = getelementptr inbounds %struct.XBZRLECacheStats, ptr %61, i32 0, i32 2
  store i64 %59, ptr %pages, align 8
  %62 = getelementptr inbounds %struct.XBZRLECacheStats, ptr @xbzrle_counters, i32 0, i32 3
  %63 = load i64, ptr %62, align 8
  %64 = load ptr, ptr %info.addr, align 8
  %xbzrle_cache40 = getelementptr inbounds %struct.MigrationInfo, ptr %64, i32 0, i32 5
  %65 = load ptr, ptr %xbzrle_cache40, align 8
  %cache_miss = getelementptr inbounds %struct.XBZRLECacheStats, ptr %65, i32 0, i32 3
  store i64 %63, ptr %cache_miss, align 8
  %66 = getelementptr inbounds %struct.XBZRLECacheStats, ptr @xbzrle_counters, i32 0, i32 4
  %67 = load double, ptr %66, align 8
  %68 = load ptr, ptr %info.addr, align 8
  %xbzrle_cache41 = getelementptr inbounds %struct.MigrationInfo, ptr %68, i32 0, i32 5
  %69 = load ptr, ptr %xbzrle_cache41, align 8
  %cache_miss_rate = getelementptr inbounds %struct.XBZRLECacheStats, ptr %69, i32 0, i32 4
  store double %67, ptr %cache_miss_rate, align 8
  %70 = getelementptr inbounds %struct.XBZRLECacheStats, ptr @xbzrle_counters, i32 0, i32 5
  %71 = load double, ptr %70, align 8
  %72 = load ptr, ptr %info.addr, align 8
  %xbzrle_cache42 = getelementptr inbounds %struct.MigrationInfo, ptr %72, i32 0, i32 5
  %73 = load ptr, ptr %xbzrle_cache42, align 8
  %encoding_rate = getelementptr inbounds %struct.XBZRLECacheStats, ptr %73, i32 0, i32 5
  store double %71, ptr %encoding_rate, align 8
  %74 = getelementptr inbounds %struct.XBZRLECacheStats, ptr @xbzrle_counters, i32 0, i32 6
  %75 = load i64, ptr %74, align 8
  %76 = load ptr, ptr %info.addr, align 8
  %xbzrle_cache43 = getelementptr inbounds %struct.MigrationInfo, ptr %76, i32 0, i32 5
  %77 = load ptr, ptr %xbzrle_cache43, align 8
  %overflow = getelementptr inbounds %struct.XBZRLECacheStats, ptr %77, i32 0, i32 6
  store i64 %75, ptr %overflow, align 8
  br label %if.end

if.end:                                           ; preds = %if.then, %entry
  %78 = load ptr, ptr %info.addr, align 8
  call void @populate_compress(ptr noundef %78)
  %call44 = call zeroext i1 @cpu_throttle_active()
  br i1 %call44, label %if.then45, label %if.end48

if.then45:                                        ; preds = %if.end
  %79 = load ptr, ptr %info.addr, align 8
  %has_cpu_throttle_percentage = getelementptr inbounds %struct.MigrationInfo, ptr %79, i32 0, i32 14
  store i8 1, ptr %has_cpu_throttle_percentage, align 8
  %call46 = call i32 @cpu_throttle_get_percentage()
  %conv47 = sext i32 %call46 to i64
  %80 = load ptr, ptr %info.addr, align 8
  %cpu_throttle_percentage = getelementptr inbounds %struct.MigrationInfo, ptr %80, i32 0, i32 15
  store i64 %conv47, ptr %cpu_throttle_percentage, align 8
  br label %if.end48

if.end48:                                         ; preds = %if.then45, %if.end
  %81 = load ptr, ptr %s.addr, align 8
  %state = getelementptr inbounds %struct.MigrationState, ptr %81, i32 0, i32 16
  %82 = load i32, ptr %state, align 8
  %cmp = icmp ne i32 %82, 8
  br i1 %cmp, label %if.then50, label %if.end55

if.then50:                                        ; preds = %if.end48
  %call51 = call i64 @ram_bytes_remaining()
  %83 = load ptr, ptr %info.addr, align 8
  %ram52 = getelementptr inbounds %struct.MigrationInfo, ptr %83, i32 0, i32 2
  %84 = load ptr, ptr %ram52, align 8
  %remaining = getelementptr inbounds %struct.MigrationStats, ptr %84, i32 0, i32 1
  store i64 %call51, ptr %remaining, align 8
  %85 = getelementptr inbounds %struct.MigrationAtomicStats, ptr @mig_stats, i32 0, i32 1
  %call53 = call i64 @stat64_get(ptr noundef %85)
  %86 = load ptr, ptr %info.addr, align 8
  %ram54 = getelementptr inbounds %struct.MigrationInfo, ptr %86, i32 0, i32 2
  %87 = load ptr, ptr %ram54, align 8
  %dirty_pages_rate = getelementptr inbounds %struct.MigrationStats, ptr %87, i32 0, i32 7
  store i64 %call53, ptr %dirty_pages_rate, align 8
  br label %if.end55

if.end55:                                         ; preds = %if.then50, %if.end48
  %call56 = call zeroext i1 @migrate_dirty_limit()
  br i1 %call56, label %land.lhs.true, label %if.end63

land.lhs.true:                                    ; preds = %if.end55
  %call58 = call zeroext i1 @dirtylimit_in_service()
  br i1 %call58, label %if.then60, label %if.end63

if.then60:                                        ; preds = %land.lhs.true
  %88 = load ptr, ptr %info.addr, align 8
  %has_dirty_limit_throttle_time_per_round = getelementptr inbounds %struct.MigrationInfo, ptr %88, i32 0, i32 26
  store i8 1, ptr %has_dirty_limit_throttle_time_per_round, align 8
  %call61 = call i64 @dirtylimit_throttle_time_per_round()
  %89 = load ptr, ptr %info.addr, align 8
  %dirty_limit_throttle_time_per_round = getelementptr inbounds %struct.MigrationInfo, ptr %89, i32 0, i32 27
  store i64 %call61, ptr %dirty_limit_throttle_time_per_round, align 8
  %90 = load ptr, ptr %info.addr, align 8
  %has_dirty_limit_ring_full_time = getelementptr inbounds %struct.MigrationInfo, ptr %90, i32 0, i32 28
  store i8 1, ptr %has_dirty_limit_ring_full_time, align 8
  %call62 = call i64 @dirtylimit_ring_full_time()
  %91 = load ptr, ptr %info.addr, align 8
  %dirty_limit_ring_full_time = getelementptr inbounds %struct.MigrationInfo, ptr %91, i32 0, i32 29
  store i64 %call62, ptr %dirty_limit_ring_full_time, align 8
  br label %if.end63

if.end63:                                         ; preds = %if.then60, %land.lhs.true, %if.end55
  ret void
}