; Function Attrs: nounwind sspstrong uwtable
define internal fastcc void @populate_ram_info(ptr noundef initializes((8, 16)) %info, ptr noundef nonnull readonly captures(none) %s) unnamed_addr #0 {
entry:
  %call = tail call i64 @qemu_target_page_size() #19
  %call1 = tail call noalias dereferenceable_or_null(144) ptr @g_malloc0(i64 noundef 144) #23
  %ram = getelementptr inbounds nuw i8, ptr %info, i64 8
  store ptr %call1, ptr %ram, align 8
  %call2 = tail call i64 @migration_transferred_bytes() #19
  %0 = load ptr, ptr %ram, align 8
  store i64 %call2, ptr %0, align 8
  %call4 = tail call i64 @ram_bytes_total() #19
  %1 = load ptr, ptr %ram, align 8
  %total = getelementptr inbounds nuw i8, ptr %1, i64 16
  store i64 %call4, ptr %total, align 8
  %2 = load atomic i64, ptr getelementptr inbounds nuw (i8, ptr @mig_stats, i64 112) monotonic, align 8
  %3 = load ptr, ptr %ram, align 8
  %duplicate = getelementptr inbounds nuw i8, ptr %3, i64 24
  store i64 %2, ptr %duplicate, align 8
  %4 = load ptr, ptr %ram, align 8
  %skipped = getelementptr inbounds nuw i8, ptr %4, i64 32
  store i64 0, ptr %skipped, align 8
  %5 = load atomic i64, ptr getelementptr inbounds nuw (i8, ptr @mig_stats, i64 48) monotonic, align 8
  %6 = load ptr, ptr %ram, align 8
  %normal = getelementptr inbounds nuw i8, ptr %6, i64 40
  store i64 %5, ptr %normal, align 8
  %7 = load ptr, ptr %ram, align 8
  %normal12 = getelementptr inbounds nuw i8, ptr %7, i64 40
  %8 = load i64, ptr %normal12, align 8
  %mul = mul i64 %8, %call
  %normal_bytes = getelementptr inbounds nuw i8, ptr %7, i64 48
  store i64 %mul, ptr %normal_bytes, align 8
  %mbps = getelementptr inbounds nuw i8, ptr %s, i64 1032
  %9 = load double, ptr %mbps, align 8
  %10 = load ptr, ptr %ram, align 8
  %mbps15 = getelementptr inbounds nuw i8, ptr %10, i64 64
  store double %9, ptr %mbps15, align 8
  %11 = load atomic i64, ptr getelementptr inbounds nuw (i8, ptr @mig_stats, i64 16) monotonic, align 8
  %12 = load ptr, ptr %ram, align 8
  %dirty_sync_count = getelementptr inbounds nuw i8, ptr %12, i64 72
  store i64 %11, ptr %dirty_sync_count, align 8
  %13 = load atomic i64, ptr getelementptr inbounds nuw (i8, ptr @mig_stats, i64 24) monotonic, align 8
  %14 = load ptr, ptr %ram, align 8
  %dirty_sync_missed_zero_copy = getelementptr inbounds nuw i8, ptr %14, i64 136
  store i64 %13, ptr %dirty_sync_missed_zero_copy, align 8
  %15 = load atomic i64, ptr getelementptr inbounds nuw (i8, ptr @mig_stats, i64 64) monotonic, align 8
  %16 = load ptr, ptr %ram, align 8
  %postcopy_requests = getelementptr inbounds nuw i8, ptr %16, i64 80
  store i64 %15, ptr %postcopy_requests, align 8
  %17 = load ptr, ptr %ram, align 8
  %page_size23 = getelementptr inbounds nuw i8, ptr %17, i64 88
  store i64 %call, ptr %page_size23, align 8
  %18 = load atomic i64, ptr getelementptr inbounds nuw (i8, ptr @mig_stats, i64 40) monotonic, align 8
  %19 = load ptr, ptr %ram, align 8
  %multifd_bytes = getelementptr inbounds nuw i8, ptr %19, i64 96
  store i64 %18, ptr %multifd_bytes, align 8
  %pages_per_second = getelementptr inbounds nuw i8, ptr %s, i64 488
  %20 = load double, ptr %pages_per_second, align 8
  %conv = fptoui double %20 to i64
  %21 = load ptr, ptr %ram, align 8
  %pages_per_second27 = getelementptr inbounds nuw i8, ptr %21, i64 104
  store i64 %conv, ptr %pages_per_second27, align 8
  %22 = load atomic i64, ptr getelementptr inbounds nuw (i8, ptr @mig_stats, i64 72) monotonic, align 8
  %23 = load ptr, ptr %ram, align 8
  %precopy_bytes = getelementptr inbounds nuw i8, ptr %23, i64 112
  store i64 %22, ptr %precopy_bytes, align 8
  %24 = load atomic i64, ptr getelementptr inbounds nuw (i8, ptr @mig_stats, i64 32) monotonic, align 8
  %25 = load ptr, ptr %ram, align 8
  %downtime_bytes = getelementptr inbounds nuw i8, ptr %25, i64 120
  store i64 %24, ptr %downtime_bytes, align 8
  %26 = load atomic i64, ptr getelementptr inbounds nuw (i8, ptr @mig_stats, i64 56) monotonic, align 8
  %27 = load ptr, ptr %ram, align 8
  %postcopy_bytes = getelementptr inbounds nuw i8, ptr %27, i64 128
  store i64 %26, ptr %postcopy_bytes, align 8
  %call34 = tail call zeroext i1 @migrate_xbzrle() #19
  br i1 %call34, label %if.then, label %if.end

if.then:                                          ; preds = %entry
  %call35 = tail call noalias dereferenceable_or_null(56) ptr @g_malloc0(i64 noundef 56) #23
  %xbzrle_cache = getelementptr inbounds nuw i8, ptr %info, i64 32
  store ptr %call35, ptr %xbzrle_cache, align 8
  %call36 = tail call i64 @migrate_xbzrle_cache_size() #19
  %28 = load ptr, ptr %xbzrle_cache, align 8
  store i64 %call36, ptr %28, align 8
  %29 = load i64, ptr getelementptr inbounds nuw (i8, ptr @xbzrle_counters, i64 8), align 8
  %30 = load ptr, ptr %xbzrle_cache, align 8
  %bytes = getelementptr inbounds nuw i8, ptr %30, i64 8
  store i64 %29, ptr %bytes, align 8
  %31 = load i64, ptr getelementptr inbounds nuw (i8, ptr @xbzrle_counters, i64 16), align 8
  %32 = load ptr, ptr %xbzrle_cache, align 8
  %pages = getelementptr inbounds nuw i8, ptr %32, i64 16
  store i64 %31, ptr %pages, align 8
  %33 = load i64, ptr getelementptr inbounds nuw (i8, ptr @xbzrle_counters, i64 24), align 8
  %34 = load ptr, ptr %xbzrle_cache, align 8
  %cache_miss = getelementptr inbounds nuw i8, ptr %34, i64 24
  store i64 %33, ptr %cache_miss, align 8
  %35 = load double, ptr getelementptr inbounds nuw (i8, ptr @xbzrle_counters, i64 32), align 8
  %36 = load ptr, ptr %xbzrle_cache, align 8
  %cache_miss_rate = getelementptr inbounds nuw i8, ptr %36, i64 32
  store double %35, ptr %cache_miss_rate, align 8
  %37 = load double, ptr getelementptr inbounds nuw (i8, ptr @xbzrle_counters, i64 40), align 8
  %38 = load ptr, ptr %xbzrle_cache, align 8
  %encoding_rate = getelementptr inbounds nuw i8, ptr %38, i64 40
  store double %37, ptr %encoding_rate, align 8
  %39 = load i64, ptr getelementptr inbounds nuw (i8, ptr @xbzrle_counters, i64 48), align 8
  %40 = load ptr, ptr %xbzrle_cache, align 8
  %overflow = getelementptr inbounds nuw i8, ptr %40, i64 48
  store i64 %39, ptr %overflow, align 8
  br label %if.end

if.end:                                           ; preds = %if.then, %entry
  tail call void @populate_compress(ptr noundef nonnull %info) #19
  %call44 = tail call zeroext i1 @cpu_throttle_active() #19
  br i1 %call44, label %if.then45, label %if.end48

if.then45:                                        ; preds = %if.end
  %has_cpu_throttle_percentage = getelementptr inbounds nuw i8, ptr %info, i64 104
  store i8 1, ptr %has_cpu_throttle_percentage, align 8
  %call46 = tail call i32 @cpu_throttle_get_percentage() #19
  %conv47 = sext i32 %call46 to i64
  %cpu_throttle_percentage = getelementptr inbounds nuw i8, ptr %info, i64 112
  store i64 %conv47, ptr %cpu_throttle_percentage, align 8
  br label %if.end48

if.end48:                                         ; preds = %if.then45, %if.end
  %state = getelementptr inbounds nuw i8, ptr %s, i64 776
  %41 = load i32, ptr %state, align 8
  %cmp.not = icmp eq i32 %41, 8
  br i1 %cmp.not, label %if.end55, label %if.then50

if.then50:                                        ; preds = %if.end48
  %call51 = tail call i64 @ram_bytes_remaining() #19
  %42 = load ptr, ptr %ram, align 8
  %remaining = getelementptr inbounds nuw i8, ptr %42, i64 8
  store i64 %call51, ptr %remaining, align 8
  %43 = load atomic i64, ptr getelementptr inbounds nuw (i8, ptr @mig_stats, i64 8) monotonic, align 8
  %44 = load ptr, ptr %ram, align 8
  %dirty_pages_rate = getelementptr inbounds nuw i8, ptr %44, i64 56
  store i64 %43, ptr %dirty_pages_rate, align 8
  br label %if.end55

if.end55:                                         ; preds = %if.then50, %if.end48
  %call56 = tail call zeroext i1 @migrate_dirty_limit() #19
  br i1 %call56, label %land.lhs.true, label %if.end63

land.lhs.true:                                    ; preds = %if.end55
  %call58 = tail call zeroext i1 @dirtylimit_in_service() #19
  br i1 %call58, label %if.then60, label %if.end63

if.then60:                                        ; preds = %land.lhs.true
  %has_dirty_limit_throttle_time_per_round = getelementptr inbounds nuw i8, ptr %info, i64 192
  store i8 1, ptr %has_dirty_limit_throttle_time_per_round, align 8
  %call61 = tail call i64 @dirtylimit_throttle_time_per_round() #19
  %dirty_limit_throttle_time_per_round = getelementptr inbounds nuw i8, ptr %info, i64 200
  store i64 %call61, ptr %dirty_limit_throttle_time_per_round, align 8
  %has_dirty_limit_ring_full_time = getelementptr inbounds nuw i8, ptr %info, i64 208
  store i8 1, ptr %has_dirty_limit_ring_full_time, align 8
  %call62 = tail call i64 @dirtylimit_ring_full_time() #19
  %dirty_limit_ring_full_time = getelementptr inbounds nuw i8, ptr %info, i64 216
  store i64 %call62, ptr %dirty_limit_ring_full_time, align 8
  br label %if.end63

if.end63:                                         ; preds = %if.then60, %land.lhs.true, %if.end55
  ret void
}